; Function Attrs: mustprogress nofree norecurse nosync nounwind willreturn memory(read, inaccessiblemem: none) uwtable
define dso_local noundef zeroext i1 @_ZNK4node4quic6Stream6is_eosEv(ptr nocapture noundef nonnull readonly align 8 dereferenceable(256) %this) local_unnamed_addr #7 align 2 {
entry:
  %ptr_.i = getelementptr inbounds i8, ptr %this, i64 144
  %0 = load ptr, ptr %ptr_.i, align 8
  %fin_sent = getelementptr inbounds i8, ptr %0, i64 8
  %1 = load i8, ptr %fin_sent, align 8
  %tobool = icmp ne i8 %1, 0
  ret i1 %tobool
}